target datalayout = "e-m:e-p270:32:32-p271:32:32-p272:64:64-i64:64-i128:128-f80:128-n8:16:32:64-S128"
target triple = "x86_64-pc-linux-gnu"

%struct.lexbor_mem = type { ptr, ptr, i64, i64 }
%struct.lexbor_mem_chunk = type { ptr, i64, i64, ptr, ptr }

; Function Attrs: nounwind uwtable
define hidden ptr @lexbor_mem_chunk_init(ptr noundef %0, ptr noundef %1, i64 noundef %2) #0 {
  %4 = alloca ptr, align 8
  %5 = alloca ptr, align 8
  %6 = alloca i64, align 8
  store ptr %0, ptr %4, align 8
  store ptr %1, ptr %5, align 8
  store i64 %2, ptr %6, align 8
  %7 = load i64, ptr %6, align 8
  %8 = call i64 @lexbor_mem_align(i64 noundef %7)
  store i64 %8, ptr %6, align 8
  %9 = load i64, ptr %6, align 8
  %10 = load ptr, ptr %4, align 8
  %11 = getelementptr inbounds %struct.lexbor_mem, ptr %10, i32 0, i32 2
  %12 = load i64, ptr %11, align 8
  %13 = icmp ugt i64 %9, %12
  br i1 %13, label %14, label %34

14:                                               ; preds = %3
  %15 = load ptr, ptr %4, align 8
  %16 = getelementptr inbounds %struct.lexbor_mem, ptr %15, i32 0, i32 2
  %17 = load i64, ptr %16, align 8
  %18 = load i64, ptr %6, align 8
  %19 = sub i64 -1, %18
  %20 = icmp ugt i64 %17, %19
  br i1 %20, label %21, label %25

21:                                               ; preds = %14
  %22 = load i64, ptr %6, align 8
  %23 = load ptr, ptr %5, align 8
  %24 = getelementptr inbounds %struct.lexbor_mem_chunk, ptr %23, i32 0, i32 2
  store i64 %22, ptr %24, align 8
  br label %33

25:                                               ; preds = %14
  %26 = load i64, ptr %6, align 8
  %27 = load ptr, ptr %4, align 8
  %28 = getelementptr inbounds %struct.lexbor_mem, ptr %27, i32 0, i32 2
  %29 = load i64, ptr %28, align 8
  %30 = add i64 %26, %29
  %31 = load ptr, ptr %5, align 8
  %32 = getelementptr inbounds %struct.lexbor_mem_chunk, ptr %31, i32 0, i32 2
  store i64 %30, ptr %32, align 8
  br label %33

33:                                               ; preds = %25, %21
  br label %40

34:                                               ; preds = %3
  %35 = load ptr, ptr %4, align 8
  %36 = getelementptr inbounds %struct.lexbor_mem, ptr %35, i32 0, i32 2
  %37 = load i64, ptr %36, align 8
  %38 = load ptr, ptr %5, align 8
  %39 = getelementptr inbounds %struct.lexbor_mem_chunk, ptr %38, i32 0, i32 2
  store i64 %37, ptr %39, align 8
  br label %40

40:                                               ; preds = %34, %33
  %41 = load ptr, ptr %5, align 8
  %42 = getelementptr inbounds %struct.lexbor_mem_chunk, ptr %41, i32 0, i32 1
  store i64 0, ptr %42, align 8
  %43 = load ptr, ptr %5, align 8
  %44 = getelementptr inbounds %struct.lexbor_mem_chunk, ptr %43, i32 0, i32 2
  %45 = load i64, ptr %44, align 8
  %46 = mul i64 %45, 1
  %47 = call ptr @lexbor_malloc(i64 noundef %46)
  %48 = load ptr, ptr %5, align 8
  %49 = getelementptr inbounds %struct.lexbor_mem_chunk, ptr %48, i32 0, i32 0
  store ptr %47, ptr %49, align 8
  %50 = load ptr, ptr %5, align 8
  %51 = getelementptr inbounds %struct.lexbor_mem_chunk, ptr %50, i32 0, i32 0
  %52 = load ptr, ptr %51, align 8
  ret ptr %52
}

; Function Attrs: nounwind uwtable
define hidden ptr @lexbor_mem_chunk_make(ptr noundef %0, i64 noundef %1) #0 {
  %3 = alloca ptr, align 8
  %4 = alloca ptr, align 8
  %5 = alloca i64, align 8
  %6 = alloca ptr, align 8
  store ptr %0, ptr %4, align 8
  store i64 %1, ptr %5, align 8
  %7 = call ptr @lexbor_calloc(i64 noundef 1, i64 noundef 40)
  store ptr %7, ptr %6, align 8
  %8 = load ptr, ptr %6, align 8
  %9 = icmp eq ptr %8, null
  br i1 %9, label %10, label %11

10:                                               ; preds = %2
  store ptr null, ptr %3, align 8
  br label %22

11:                                               ; preds = %2
  %12 = load ptr, ptr %4, align 8
  %13 = load ptr, ptr %6, align 8
  %14 = load i64, ptr %5, align 8
  %15 = call ptr @lexbor_mem_chunk_init(ptr noundef %12, ptr noundef %13, i64 noundef %14)
  %16 = icmp eq ptr %15, null
  br i1 %16, label %17, label %20

17:                                               ; preds = %11
  %18 = load ptr, ptr %6, align 8
  %19 = call ptr @lexbor_free(ptr noundef %18)
  store ptr %19, ptr %3, align 8
  br label %22

20:                                               ; preds = %11
  %21 = load ptr, ptr %6, align 8
  store ptr %21, ptr %3, align 8
  br label %22

22:                                               ; preds = %20, %17, %10
  %23 = load ptr, ptr %3, align 8
  ret ptr %23
}

; Function Attrs: nounwind uwtable
define internal i64 @lexbor_mem_align(i64 noundef %0) #0 {
  %2 = alloca i64, align 8
  store i64 %0, ptr %2, align 8
  %3 = load i64, ptr %2, align 8
  %4 = urem i64 %3, 8
  %5 = icmp ne i64 %4, 0
  br i1 %5, label %6, label %12

6:                                                ; preds = %1
  %7 = load i64, ptr %2, align 8
  %8 = load i64, ptr %2, align 8
  %9 = urem i64 %8, 8
  %10 = sub i64 8, %9
  %11 = add i64 %7, %10
  br label %14

12:                                               ; preds = %1
  %13 = load i64, ptr %2, align 8
  br label %14

14:                                               ; preds = %12, %6
  %15 = phi i64 [ %11, %6 ], [ %13, %12 ]
  ret i64 %15
}

; Function Attrs: nounwind uwtable
define hidden ptr @lexbor_mem_alloc(ptr noundef %0, i64 noundef %1) #0 {
  %3 = alloca ptr, align 8
  %4 = alloca ptr, align 8
  %5 = alloca i64, align 8
  store ptr %0, ptr %4, align 8
  store i64 %1, ptr %5, align 8
  %6 = load i64, ptr %5, align 8
  %7 = icmp eq i64 %6, 0
  br i1 %7, label %8, label %9

8:                                                ; preds = %2
  store ptr null, ptr %3, align 8
  br label %89

9:                                                ; preds = %2
  %10 = load i64, ptr %5, align 8
  %11 = call i64 @lexbor_mem_align(i64 noundef %10)
  store i64 %11, ptr %5, align 8
  %12 = load ptr, ptr %4, align 8
  %13 = getelementptr inbounds %struct.lexbor_mem, ptr %12, i32 0, i32 0
  %14 = load ptr, ptr %13, align 8
  %15 = getelementptr inbounds %struct.lexbor_mem_chunk, ptr %14, i32 0, i32 1
  %16 = load i64, ptr %15, align 8
  %17 = load i64, ptr %5, align 8
  %18 = add i64 %16, %17
  %19 = load ptr, ptr %4, align 8
  %20 = getelementptr inbounds %struct.lexbor_mem, ptr %19, i32 0, i32 0
  %21 = load ptr, ptr %20, align 8
  %22 = getelementptr inbounds %struct.lexbor_mem_chunk, ptr %21, i32 0, i32 2
  %23 = load i64, ptr %22, align 8
  %24 = icmp ugt i64 %18, %23
  br i1 %24, label %25, label %68

25:                                               ; preds = %9
  %26 = load ptr, ptr %4, align 8
  %27 = getelementptr inbounds %struct.lexbor_mem, ptr %26, i32 0, i32 3
  %28 = load i64, ptr %27, align 8
  %29 = sub i64 -1, %28
  %30 = icmp eq i64 %29, 0
  br i1 %30, label %31, label %32

31:                                               ; preds = %25
  store ptr null, ptr %3, align 8
  br label %89

32:                                               ; preds = %25
  %33 = load ptr, ptr %4, align 8
  %34 = load i64, ptr %5, align 8
  %35 = call ptr @lexbor_mem_chunk_make(ptr noundef %33, i64 noundef %34)
  %36 = load ptr, ptr %4, align 8
  %37 = getelementptr inbounds %struct.lexbor_mem, ptr %36, i32 0, i32 0
  %38 = load ptr, ptr %37, align 8
  %39 = getelementptr inbounds %struct.lexbor_mem_chunk, ptr %38, i32 0, i32 3
  store ptr %35, ptr %39, align 8
  %40 = load ptr, ptr %4, align 8
  %41 = getelementptr inbounds %struct.lexbor_mem, ptr %40, i32 0, i32 0
  %42 = load ptr, ptr %41, align 8
  %43 = getelementptr inbounds %struct.lexbor_mem_chunk, ptr %42, i32 0, i32 3
  %44 = load ptr, ptr %43, align 8
  %45 = icmp eq ptr %44, null
  br i1 %45, label %46, label %47

46:                                               ; preds = %32
  store ptr null, ptr %3, align 8
  br label %89

47:                                               ; preds = %32
  %48 = load ptr, ptr %4, align 8
  %49 = getelementptr inbounds %struct.lexbor_mem, ptr %48, i32 0, i32 0
  %50 = load ptr, ptr %49, align 8
  %51 = load ptr, ptr %4, align 8
  %52 = getelementptr inbounds %struct.lexbor_mem, ptr %51, i32 0, i32 0
  %53 = load ptr, ptr %52, align 8
  %54 = getelementptr inbounds %struct.lexbor_mem_chunk, ptr %53, i32 0, i32 3
  %55 = load ptr, ptr %54, align 8
  %56 = getelementptr inbounds %struct.lexbor_mem_chunk, ptr %55, i32 0, i32 4
  store ptr %50, ptr %56, align 8
  %57 = load ptr, ptr %4, align 8
  %58 = getelementptr inbounds %struct.lexbor_mem, ptr %57, i32 0, i32 0
  %59 = load ptr, ptr %58, align 8
  %60 = getelementptr inbounds %struct.lexbor_mem_chunk, ptr %59, i32 0, i32 3
  %61 = load ptr, ptr %60, align 8
  %62 = load ptr, ptr %4, align 8
  %63 = getelementptr inbounds %struct.lexbor_mem, ptr %62, i32 0, i32 0
  store ptr %61, ptr %63, align 8
  %64 = load ptr, ptr %4, align 8
  %65 = getelementptr inbounds %struct.lexbor_mem, ptr %64, i32 0, i32 3
  %66 = load i64, ptr %65, align 8
  %67 = add i64 %66, 1
  store i64 %67, ptr %65, align 8
  br label %68

68:                                               ; preds = %47, %9
  %69 = load i64, ptr %5, align 8
  %70 = load ptr, ptr %4, align 8
  %71 = getelementptr inbounds %struct.lexbor_mem, ptr %70, i32 0, i32 0
  %72 = load ptr, ptr %71, align 8
  %73 = getelementptr inbounds %struct.lexbor_mem_chunk, ptr %72, i32 0, i32 1
  %74 = load i64, ptr %73, align 8
  %75 = add i64 %74, %69
  store i64 %75, ptr %73, align 8
  %76 = load ptr, ptr %4, align 8
  %77 = getelementptr inbounds %struct.lexbor_mem, ptr %76, i32 0, i32 0
  %78 = load ptr, ptr %77, align 8
  %79 = getelementptr inbounds %struct.lexbor_mem_chunk, ptr %78, i32 0, i32 0
  %80 = load ptr, ptr %79, align 8
  %81 = load ptr, ptr %4, align 8
  %82 = getelementptr inbounds %struct.lexbor_mem, ptr %81, i32 0, i32 0
  %83 = load ptr, ptr %82, align 8
  %84 = getelementptr inbounds %struct.lexbor_mem_chunk, ptr %83, i32 0, i32 1
  %85 = load i64, ptr %84, align 8
  %86 = load i64, ptr %5, align 8
  %87 = sub i64 %85, %86
  %88 = getelementptr inbounds i8, ptr %80, i64 %87
  store ptr %88, ptr %3, align 8
  br label %89

89:                                               ; preds = %68, %46, %31, %8
  %90 = load ptr, ptr %3, align 8
  ret ptr %90
}