; Function Attrs: nounwind uwtable
define hidden ptr @lexbor_mem_alloc(ptr nocapture noundef %0, i64 noundef %1) local_unnamed_addr #0 {
  %3 = icmp eq i64 %1, 0
  br i1 %3, label %55, label %4

4:                                                ; preds = %2
  %.biased.i = add i64 %1, 7
  %5 = and i64 %.biased.i, -8
  %6 = load ptr, ptr %0, align 8
  %7 = getelementptr inbounds i8, ptr %6, i64 8
  %8 = load i64, ptr %7, align 8
  %9 = add i64 %8, %5
  %10 = getelementptr inbounds i8, ptr %6, i64 16
  %11 = load i64, ptr %10, align 8
  %12 = icmp ugt i64 %9, %11
  br i1 %12, label %13, label %46

13:                                               ; preds = %4
  %14 = getelementptr inbounds i8, ptr %0, i64 24
  %15 = load i64, ptr %14, align 8
  %16 = icmp eq i64 %15, -1
  br i1 %16, label %55, label %17

17:                                               ; preds = %13
  %18 = tail call ptr @lexbor_calloc(i64 noundef 1, i64 noundef 40) #6
  %19 = icmp eq ptr %18, null
  br i1 %19, label %lexbor_mem_chunk_make.exit, label %20

20:                                               ; preds = %17
  %21 = getelementptr inbounds i8, ptr %0, i64 16
  %22 = load i64, ptr %21, align 8
  %23 = icmp ugt i64 %5, %22
  %24 = xor i64 %5, -1
  %25 = icmp ugt i64 %22, %24
  %26 = select i1 %25, i64 0, i64 %22
  %spec.select.i.i = add i64 %26, %5
  %.sink.i.i = select i1 %23, i64 %spec.select.i.i, i64 %22
  %27 = getelementptr inbounds i8, ptr %18, i64 16
  store i64 %.sink.i.i, ptr %27, align 8
  %28 = getelementptr inbounds i8, ptr %18, i64 8
  store i64 0, ptr %28, align 8
  %29 = tail call ptr @lexbor_malloc(i64 noundef %.sink.i.i) #6
  store ptr %29, ptr %18, align 8
  %30 = icmp eq ptr %29, null
  br i1 %30, label %31, label %lexbor_mem_chunk_make.exit

31:                                               ; preds = %20
  %32 = tail call ptr @lexbor_free(ptr noundef nonnull %18) #6
  br label %lexbor_mem_chunk_make.exit

lexbor_mem_chunk_make.exit:                       ; preds = %17, %20, %31
  %.0.i = phi ptr [ %32, %31 ], [ null, %17 ], [ %18, %20 ]
  %33 = load ptr, ptr %0, align 8
  %34 = getelementptr inbounds i8, ptr %33, i64 24
  store ptr %.0.i, ptr %34, align 8
  %35 = load ptr, ptr %0, align 8
  %36 = getelementptr inbounds i8, ptr %35, i64 24
  %37 = load ptr, ptr %36, align 8
  %38 = icmp eq ptr %37, null
  br i1 %38, label %55, label %39

39:                                               ; preds = %lexbor_mem_chunk_make.exit
  %40 = getelementptr inbounds i8, ptr %37, i64 32
  store ptr %35, ptr %40, align 8
  %41 = load ptr, ptr %0, align 8
  %42 = getelementptr inbounds i8, ptr %41, i64 24
  %43 = load ptr, ptr %42, align 8
  store ptr %43, ptr %0, align 8
  %44 = load i64, ptr %14, align 8
  %45 = add i64 %44, 1
  store i64 %45, ptr %14, align 8
  %.phi.trans.insert = getelementptr inbounds i8, ptr %43, i64 8
  %.pre = load i64, ptr %.phi.trans.insert, align 8
  %.pre22 = add i64 %.pre, %5
  br label %46

46:                                               ; preds = %39, %4
  %.pre-phi = phi i64 [ %.pre22, %39 ], [ %9, %4 ]
  %47 = phi ptr [ %43, %39 ], [ %6, %4 ]
  %48 = getelementptr inbounds i8, ptr %47, i64 8
  store i64 %.pre-phi, ptr %48, align 8
  %49 = load ptr, ptr %0, align 8
  %50 = load ptr, ptr %49, align 8
  %51 = getelementptr inbounds i8, ptr %49, i64 8
  %52 = load i64, ptr %51, align 8
  %53 = sub i64 %52, %5
  %54 = getelementptr inbounds i8, ptr %50, i64 %53
  br label %55

55:                                               ; preds = %lexbor_mem_chunk_make.exit, %13, %2, %46
  %.0 = phi ptr [ %54, %46 ], [ null, %2 ], [ null, %13 ], [ null, %lexbor_mem_chunk_make.exit ]
  ret ptr %.0
}